; Function Attrs: mustprogress nofree norecurse nosync nounwind willreturn memory(readwrite, inaccessiblemem: none) uwtable
define hidden void @_ZN9CardTable15dirty_MemRegionE9MemRegion(ptr nocapture noundef nonnull readonly align 8 dereferenceable(88) %0, ptr %1, i64 %2) local_unnamed_addr #6 align 2 {
  %4 = getelementptr inbounds i8, ptr %0, i64 48
  %5 = load ptr, ptr %4, align 8
  %6 = ptrtoint ptr %1 to i64
  %7 = load i32, ptr @_ZN9CardTable11_card_shiftE, align 4
  %8 = zext nneg i32 %7 to i64
  %9 = lshr i64 %6, %8
  %10 = getelementptr inbounds i8, ptr %5, i64 %9
  %11 = getelementptr inbounds ptr, ptr %1, i64 %2
  %12 = getelementptr inbounds i8, ptr %11, i64 -8
  %13 = ptrtoint ptr %12 to i64
  %14 = lshr i64 %13, %8
  %15 = getelementptr inbounds i8, ptr %5, i64 %14
  %16 = getelementptr inbounds i8, ptr %15, i64 1
  %17 = ptrtoint ptr %16 to i64
  %18 = ptrtoint ptr %10 to i64
  %19 = sub i64 %17, %18
  tail call void @llvm.memset.p0.i64(ptr align 1 %10, i8 0, i64 %19, i1 false)
  ret void
}